; Function Attrs: null_pointer_is_valid sspstrong uwtable
define hidden i32 @netdfs_dissect_struct_dfs_Target_Priority(ptr noundef %0, i32 noundef %1, ptr noundef %2, ptr noundef %3, ptr noundef %4, ptr noundef %5, i32 noundef %6, i32 %7) local_unnamed_addr #0 {
  %9 = alloca i32, align 4
  %10 = getelementptr inbounds nuw i8, ptr %4, i64 25
  %11 = load i8, ptr %10, align 1, !range !6, !noundef !7
  %12 = trunc nuw i8 %11 to i1
  %13 = and i32 %1, 3
  %.not = icmp eq i32 %13, 0
  %or.cond = or i1 %.not, %12
  %14 = and i32 %1, -4
  %15 = add i32 %14, 4
  %.0 = select i1 %or.cond, i32 %1, i32 %15
  %.not38 = icmp eq ptr %3, null
  br i1 %.not38, label %20, label %16

16:                                               ; preds = %8
  %17 = tail call ptr @proto_tree_add_item(ptr noundef nonnull %3, i32 noundef %6, ptr noundef %0, i32 noundef %.0, i32 noundef -1, i32 noundef 0)
  %18 = load i32, ptr @ett_netdfs_dfs_Target_Priority, align 4
  %19 = tail call ptr @proto_item_add_subtree(ptr noundef %17, i32 noundef %18)
  br label %20

20:                                               ; preds = %16, %8
  %.036 = phi ptr [ %17, %16 ], [ null, %8 ]
  %.035 = phi ptr [ %19, %16 ], [ null, %8 ]
  %21 = load i32, ptr @hf_netdfs_dfs_Target_Priority_target_priority_class, align 4
  call void @llvm.lifetime.start.p0(i64 4, ptr nonnull %9) #4
  store i32 0, ptr %9, align 4
  %22 = call i32 @dissect_ndr_uint32(ptr noundef %0, i32 noundef %.0, ptr noundef %2, ptr noundef %.035, ptr noundef %4, ptr noundef %5, i32 noundef %21, ptr noundef nonnull %9)
  call void @llvm.lifetime.end.p0(i64 4, ptr nonnull %9) #4
  %23 = load i32, ptr @hf_netdfs_dfs_Target_Priority_target_priority_rank, align 4
  %24 = call i32 @PIDL_dissect_uint16(ptr noundef %0, i32 noundef %22, ptr noundef %2, ptr noundef %.035, ptr noundef %4, ptr noundef %5, i32 noundef %23, i32 noundef 0)
  %25 = load i32, ptr @hf_netdfs_dfs_Target_Priority_reserved, align 4
  %26 = call i32 @PIDL_dissect_uint16(ptr noundef %0, i32 noundef %24, ptr noundef %2, ptr noundef %.035, ptr noundef %4, ptr noundef %5, i32 noundef %25, i32 noundef 0)
  %27 = sub i32 %26, %.0
  call void @proto_item_set_len(ptr noundef %.036, i32 noundef %27)
  %28 = getelementptr inbounds nuw i8, ptr %4, i64 64
  %29 = load ptr, ptr %28, align 8
  %30 = getelementptr inbounds nuw i8, ptr %29, i64 96
  %31 = load i32, ptr %30, align 8
  %32 = and i32 %31, 1
  %.not39 = icmp eq i32 %32, 0
  br i1 %.not39, label %40, label %33

33:                                               ; preds = %20
  %34 = load i8, ptr %10, align 1, !range !6, !noundef !7
  %35 = trunc nuw i8 %34 to i1
  %36 = and i32 %26, 3
  %.not40 = icmp eq i32 %36, 0
  %or.cond41 = or i1 %.not40, %35
  br i1 %or.cond41, label %40, label %37

37:                                               ; preds = %33
  %38 = and i32 %26, -4
  %39 = add i32 %38, 4
  br label %40

40:                                               ; preds = %33, %37, %20
  %.1 = phi i32 [ %26, %33 ], [ %39, %37 ], [ %26, %20 ]
  ret i32 %.1
}